target datalayout = "e-m:e-p270:32:32-p271:32:32-p272:64:64-i64:64-i128:128-f80:128-n8:16:32:64-S128"
target triple = "x86_64-pc-linux-gnu"

%class.klassVtable = type { ptr, i32, i32 }

; Function Attrs: mustprogress nounwind uwtable
define linkonce_odr hidden void @_ZN4Copy17pd_disjoint_wordsEPKP12HeapWordImplPS1_m(ptr noundef %0, ptr noundef %1, i64 noundef %2) #1 comdat align 2 {
  %4 = alloca ptr, align 8
  %5 = alloca ptr, align 8
  %6 = alloca i64, align 8
  store ptr %0, ptr %4, align 8
  store ptr %1, ptr %5, align 8
  store i64 %2, ptr %6, align 8
  %7 = load i64, ptr %6, align 8
  switch i64 %7, label %57 [
    i64 8, label %8
    i64 7, label %14
    i64 6, label %20
    i64 5, label %26
    i64 4, label %32
    i64 3, label %38
    i64 2, label %44
    i64 1, label %50
    i64 0, label %56
  ]

8:                                                ; preds = %3
  %9 = load ptr, ptr %4, align 8
  %10 = getelementptr inbounds ptr, ptr %9, i64 7
  %11 = load ptr, ptr %10, align 8
  %12 = load ptr, ptr %5, align 8
  %13 = getelementptr inbounds ptr, ptr %12, i64 7
  store ptr %11, ptr %13, align 8
  br label %14

14:                                               ; preds = %8, %3
  %15 = load ptr, ptr %4, align 8
  %16 = getelementptr inbounds ptr, ptr %15, i64 6
  %17 = load ptr, ptr %16, align 8
  %18 = load ptr, ptr %5, align 8
  %19 = getelementptr inbounds ptr, ptr %18, i64 6
  store ptr %17, ptr %19, align 8
  br label %20

20:                                               ; preds = %14, %3
  %21 = load ptr, ptr %4, align 8
  %22 = getelementptr inbounds ptr, ptr %21, i64 5
  %23 = load ptr, ptr %22, align 8
  %24 = load ptr, ptr %5, align 8
  %25 = getelementptr inbounds ptr, ptr %24, i64 5
  store ptr %23, ptr %25, align 8
  br label %26

26:                                               ; preds = %20, %3
  %27 = load ptr, ptr %4, align 8
  %28 = getelementptr inbounds ptr, ptr %27, i64 4
  %29 = load ptr, ptr %28, align 8
  %30 = load ptr, ptr %5, align 8
  %31 = getelementptr inbounds ptr, ptr %30, i64 4
  store ptr %29, ptr %31, align 8
  br label %32

32:                                               ; preds = %26, %3
  %33 = load ptr, ptr %4, align 8
  %34 = getelementptr inbounds ptr, ptr %33, i64 3
  %35 = load ptr, ptr %34, align 8
  %36 = load ptr, ptr %5, align 8
  %37 = getelementptr inbounds ptr, ptr %36, i64 3
  store ptr %35, ptr %37, align 8
  br label %38

38:                                               ; preds = %32, %3
  %39 = load ptr, ptr %4, align 8
  %40 = getelementptr inbounds ptr, ptr %39, i64 2
  %41 = load ptr, ptr %40, align 8
  %42 = load ptr, ptr %5, align 8
  %43 = getelementptr inbounds ptr, ptr %42, i64 2
  store ptr %41, ptr %43, align 8
  br label %44

44:                                               ; preds = %38, %3
  %45 = load ptr, ptr %4, align 8
  %46 = getelementptr inbounds ptr, ptr %45, i64 1
  %47 = load ptr, ptr %46, align 8
  %48 = load ptr, ptr %5, align 8
  %49 = getelementptr inbounds ptr, ptr %48, i64 1
  store ptr %47, ptr %49, align 8
  br label %50

50:                                               ; preds = %44, %3
  %51 = load ptr, ptr %4, align 8
  %52 = getelementptr inbounds ptr, ptr %51, i64 0
  %53 = load ptr, ptr %52, align 8
  %54 = load ptr, ptr %5, align 8
  %55 = getelementptr inbounds ptr, ptr %54, i64 0
  store ptr %53, ptr %55, align 8
  br label %56

56:                                               ; preds = %50, %3
  br label %62

57:                                               ; preds = %3
  %58 = load ptr, ptr %5, align 8
  %59 = load ptr, ptr %4, align 8
  %60 = load i64, ptr %6, align 8
  %61 = mul i64 %60, 8
  call void @llvm.memcpy.p0.p0.i64(ptr align 8 %58, ptr align 8 %59, i64 %61, i1 false)
  br label %62

62:                                               ; preds = %57, %56
  ret void
}

; Function Attrs: mustprogress nounwind uwtable
define linkonce_odr hidden void @_ZN4Copy15assert_disjointEPKP12HeapWordImplPS1_m(ptr noundef %0, ptr noundef %1, i64 noundef %2) #1 comdat align 2 {
  %4 = alloca ptr, align 8
  %5 = alloca ptr, align 8
  %6 = alloca i64, align 8
  store ptr %0, ptr %4, align 8
  store ptr %1, ptr %5, align 8
  store i64 %2, ptr %6, align 8
  ret void
}

; Function Attrs: mustprogress nounwind uwtable
define linkonce_odr hidden void @_ZN4Copy16assert_params_okEPKvPvl(ptr noundef %0, ptr noundef %1, i64 noundef %2) #1 comdat align 2 {
  %4 = alloca ptr, align 8
  %5 = alloca ptr, align 8
  %6 = alloca i64, align 8
  store ptr %0, ptr %4, align 8
  store ptr %1, ptr %5, align 8
  store i64 %2, ptr %6, align 8
  ret void
}

; Function Attrs: mustprogress nounwind uwtable
define linkonce_odr hidden void @_ZN4Copy14disjoint_wordsEPKP12HeapWordImplPS1_m(ptr noundef %0, ptr noundef %1, i64 noundef %2) #1 comdat align 2 {
  %4 = alloca ptr, align 8
  %5 = alloca ptr, align 8
  %6 = alloca i64, align 8
  store ptr %0, ptr %4, align 8
  store ptr %1, ptr %5, align 8
  store i64 %2, ptr %6, align 8
  %7 = load ptr, ptr %4, align 8
  %8 = load ptr, ptr %5, align 8
  call void @_ZN4Copy16assert_params_okEPKvPvl(ptr noundef %7, ptr noundef %8, i64 noundef 8)
  %9 = load ptr, ptr %4, align 8
  %10 = load ptr, ptr %5, align 8
  %11 = load i64, ptr %6, align 8
  call void @_ZN4Copy15assert_disjointEPKP12HeapWordImplPS1_m(ptr noundef %9, ptr noundef %10, i64 noundef %11)
  %12 = load ptr, ptr %4, align 8
  %13 = load ptr, ptr %5, align 8
  %14 = load i64, ptr %6, align 8
  call void @_ZN4Copy17pd_disjoint_wordsEPKP12HeapWordImplPS1_m(ptr noundef %12, ptr noundef %13, i64 noundef %14)
  ret void
}

; Function Attrs: mustprogress nounwind uwtable
define linkonce_odr hidden noundef i32 @_ZN11vtableEntry4sizeEv() #1 comdat align 2 {
  ret i32 1
}

; Function Attrs: mustprogress nounwind uwtable
define linkonce_odr hidden noundef ptr @_ZNK11klassVtable5tableEv(ptr noundef nonnull align 8 dereferenceable(16) %0) #1 comdat align 2 {
  %2 = alloca ptr, align 8
  store ptr %0, ptr %2, align 8
  %3 = load ptr, ptr %2, align 8
  %4 = getelementptr inbounds %class.klassVtable, ptr %3, i32 0, i32 0
  %5 = load ptr, ptr %4, align 8
  %6 = getelementptr inbounds %class.klassVtable, ptr %3, i32 0, i32 1
  %7 = load i32, ptr %6, align 8
  %8 = sext i32 %7 to i64
  %9 = getelementptr inbounds i8, ptr %5, i64 %8
  ret ptr %9
}

; Function Attrs: mustprogress nounwind uwtable
define hidden void @_ZN11klassVtable14copy_vtable_toEP11vtableEntry(ptr noundef nonnull align 8 dereferenceable(16) %0, ptr noundef %1) #1 align 2 {
  %3 = alloca ptr, align 8
  %4 = alloca ptr, align 8
  store ptr %0, ptr %3, align 8
  store ptr %1, ptr %4, align 8
  %5 = load ptr, ptr %3, align 8
  %6 = call noundef ptr @_ZNK11klassVtable5tableEv(ptr noundef nonnull align 8 dereferenceable(16) %5)
  %7 = load ptr, ptr %4, align 8
  %8 = getelementptr inbounds %class.klassVtable, ptr %5, i32 0, i32 2
  %9 = load i32, ptr %8, align 4
  %10 = call noundef i32 @_ZN11vtableEntry4sizeEv()
  %11 = mul nsw i32 %9, %10
  %12 = sext i32 %11 to i64
  call void @_ZN4Copy14disjoint_wordsEPKP12HeapWordImplPS1_m(ptr noundef %6, ptr noundef %7, i64 noundef %12)
  ret void
}