; Function Attrs: mustprogress nofree norecurse nosync nounwind willreturn memory(readwrite, inaccessiblemem: none) uwtable
define hidden void @_ZN11klassVtable14copy_vtable_toEP11vtableEntry(ptr nocapture noundef nonnull readonly align 8 dereferenceable(16) %0, ptr nocapture noundef writeonly %1) local_unnamed_addr #4 align 2 {
  %3 = load ptr, ptr %0, align 8
  %4 = getelementptr inbounds i8, ptr %0, i64 8
  %5 = load i32, ptr %4, align 8
  %6 = sext i32 %5 to i64
  %7 = getelementptr inbounds i8, ptr %3, i64 %6
  %8 = getelementptr inbounds i8, ptr %0, i64 12
  %9 = load i32, ptr %8, align 4
  switch i32 %9, label %40 [
    i32 8, label %10
    i32 7, label %14
    i32 6, label %18
    i32 5, label %22
    i32 4, label %26
    i32 3, label %30
    i32 2, label %34
    i32 1, label %38
    i32 0, label %_ZN4Copy14disjoint_wordsEPKP12HeapWordImplPS1_m.exit
  ]

10:                                               ; preds = %2
  %11 = getelementptr inbounds i8, ptr %7, i64 56
  %12 = load ptr, ptr %11, align 8
  %13 = getelementptr inbounds i8, ptr %1, i64 56
  store ptr %12, ptr %13, align 8
  br label %14

14:                                               ; preds = %10, %2
  %15 = getelementptr inbounds i8, ptr %7, i64 48
  %16 = load ptr, ptr %15, align 8
  %17 = getelementptr inbounds i8, ptr %1, i64 48
  store ptr %16, ptr %17, align 8
  br label %18

18:                                               ; preds = %14, %2
  %19 = getelementptr inbounds i8, ptr %7, i64 40
  %20 = load ptr, ptr %19, align 8
  %21 = getelementptr inbounds i8, ptr %1, i64 40
  store ptr %20, ptr %21, align 8
  br label %22

22:                                               ; preds = %18, %2
  %23 = getelementptr inbounds i8, ptr %7, i64 32
  %24 = load ptr, ptr %23, align 8
  %25 = getelementptr inbounds i8, ptr %1, i64 32
  store ptr %24, ptr %25, align 8
  br label %26

26:                                               ; preds = %22, %2
  %27 = getelementptr inbounds i8, ptr %7, i64 24
  %28 = load ptr, ptr %27, align 8
  %29 = getelementptr inbounds i8, ptr %1, i64 24
  store ptr %28, ptr %29, align 8
  br label %30

30:                                               ; preds = %26, %2
  %31 = getelementptr inbounds i8, ptr %7, i64 16
  %32 = load ptr, ptr %31, align 8
  %33 = getelementptr inbounds i8, ptr %1, i64 16
  store ptr %32, ptr %33, align 8
  br label %34

34:                                               ; preds = %30, %2
  %35 = getelementptr inbounds i8, ptr %7, i64 8
  %36 = load ptr, ptr %35, align 8
  %37 = getelementptr inbounds i8, ptr %1, i64 8
  store ptr %36, ptr %37, align 8
  br label %38

38:                                               ; preds = %34, %2
  %39 = load ptr, ptr %7, align 8
  store ptr %39, ptr %1, align 8
  br label %_ZN4Copy14disjoint_wordsEPKP12HeapWordImplPS1_m.exit

40:                                               ; preds = %2
  %41 = sext i32 %9 to i64
  %42 = shl nsw i64 %41, 3
  tail call void @llvm.memcpy.p0.p0.i64(ptr align 8 %1, ptr align 8 %7, i64 %42, i1 false)
  br label %_ZN4Copy14disjoint_wordsEPKP12HeapWordImplPS1_m.exit

_ZN4Copy14disjoint_wordsEPKP12HeapWordImplPS1_m.exit: ; preds = %2, %38, %40
  ret void
}